; Function Attrs: mustprogress nofree norecurse nosync nounwind willreturn memory(write, argmem: readwrite, inaccessiblemem: none) uwtable
define dso_local void @_ZN4Luau20NormalizedStringTypeC2EbSt3mapINSt7__cxx1112basic_stringIcSt11char_traitsIcESaIcEEEPKNS_4TypeESt4lessIS7_ESaISt4pairIKS7_SA_EEE(ptr noundef nonnull align 8 dereferenceable(56) initializes((0, 1), (24, 32)) %0, i1 noundef zeroext %1, ptr noundef %2) unnamed_addr #11 align 2 personality ptr @__gxx_personality_v0 {
  %4 = zext i1 %1 to i8
  store i8 %4, ptr %0, align 8, !tbaa !55
  %5 = getelementptr inbounds nuw i8, ptr %0, i64 16
  %6 = getelementptr inbounds nuw i8, ptr %2, i64 16
  %7 = load ptr, ptr %6, align 8, !tbaa !67
  %.not.i.i.i.i = icmp eq ptr %7, null
  br i1 %.not.i.i.i.i, label %22, label %8

8:                                                ; preds = %3
  %9 = getelementptr inbounds nuw i8, ptr %2, i64 8
  %10 = load i32, ptr %9, align 8, !tbaa !66
  %11 = getelementptr inbounds nuw i8, ptr %0, i64 24
  store ptr %7, ptr %11, align 8, !tbaa !67
  %12 = getelementptr inbounds nuw i8, ptr %2, i64 24
  %13 = load ptr, ptr %12, align 8, !tbaa !68
  %14 = getelementptr inbounds nuw i8, ptr %0, i64 32
  store ptr %13, ptr %14, align 8, !tbaa !68
  %15 = getelementptr inbounds nuw i8, ptr %2, i64 32
  %16 = load ptr, ptr %15, align 8, !tbaa !69
  %17 = getelementptr inbounds nuw i8, ptr %0, i64 40
  store ptr %16, ptr %17, align 8, !tbaa !69
  %18 = getelementptr inbounds nuw i8, ptr %7, i64 8
  store ptr %5, ptr %18, align 8, !tbaa !71
  %19 = getelementptr inbounds nuw i8, ptr %2, i64 40
  %20 = load i64, ptr %19, align 8, !tbaa !70
  %21 = getelementptr inbounds nuw i8, ptr %0, i64 48
  store i64 %20, ptr %21, align 8, !tbaa !70
  store ptr null, ptr %6, align 8, !tbaa !67
  store ptr %9, ptr %12, align 8, !tbaa !68
  store ptr %9, ptr %15, align 8, !tbaa !69
  store i64 0, ptr %19, align 8, !tbaa !70
  br label %_ZNSt3mapINSt7__cxx1112basic_stringIcSt11char_traitsIcESaIcEEEPKN4Luau4TypeESt4lessIS5_ESaISt4pairIKS5_S9_EEEC2EOSG_.exit

22:                                               ; preds = %3
  %23 = getelementptr inbounds nuw i8, ptr %0, i64 24
  store ptr null, ptr %23, align 8, !tbaa !67
  %24 = getelementptr inbounds nuw i8, ptr %0, i64 32
  store ptr %5, ptr %24, align 8, !tbaa !68
  %25 = getelementptr inbounds nuw i8, ptr %0, i64 40
  store ptr %5, ptr %25, align 8, !tbaa !69
  %26 = getelementptr inbounds nuw i8, ptr %0, i64 48
  store i64 0, ptr %26, align 8, !tbaa !70
  br label %_ZNSt3mapINSt7__cxx1112basic_stringIcSt11char_traitsIcESaIcEEEPKN4Luau4TypeESt4lessIS5_ESaISt4pairIKS5_S9_EEEC2EOSG_.exit

_ZNSt3mapINSt7__cxx1112basic_stringIcSt11char_traitsIcESaIcEEEPKN4Luau4TypeESt4lessIS5_ESaISt4pairIKS5_S9_EEEC2EOSG_.exit: ; preds = %8, %22
  %.sink.i.i.i.i = phi i32 [ 0, %22 ], [ %10, %8 ]
  store i32 %.sink.i.i.i.i, ptr %5, align 8, !tbaa !66
  ret void
}